target datalayout = "e-m:e-p270:32:32-p271:32:32-p272:64:64-i64:64-i128:128-f80:128-n8:16:32:64-S128"
target triple = "x86_64-pc-linux-gnu"

%struct.PCF_MetricRec_ = type { i16, i16, i16, i16, i16, i16, i64 }
%struct.PCF_Compressed_MetricRec_ = type { i8, i8, i8, i8, i8 }

; Function Attrs: nounwind uwtable
define internal i32 @pcf_get_metric(ptr noundef %0, i64 noundef %1, ptr noundef %2) #0 {
  %4 = alloca ptr, align 8
  %5 = alloca i64, align 8
  %6 = alloca ptr, align 8
  %7 = alloca i32, align 4
  %8 = alloca ptr, align 8
  %9 = alloca %struct.PCF_Compressed_MetricRec_, align 1
  store ptr %0, ptr %4, align 8
  store i64 %1, ptr %5, align 8
  store ptr %2, ptr %6, align 8
  store i32 0, ptr %7, align 4
  %10 = load i64, ptr %5, align 8
  %11 = and i64 %10, 4294967040
  %12 = icmp eq i64 %11, 0
  br i1 %12, label %13, label %24

13:                                               ; preds = %3
  %14 = load i64, ptr %5, align 8
  %15 = and i64 %14, 4
  %16 = icmp ne i64 %15, 0
  %17 = select i1 %16, i32 1, i32 0
  %18 = icmp eq i32 %17, 1
  %19 = select i1 %18, ptr @pcf_metric_msb_header, ptr @pcf_metric_header
  store ptr %19, ptr %8, align 8
  %20 = load ptr, ptr %4, align 8
  %21 = load ptr, ptr %8, align 8
  %22 = load ptr, ptr %6, align 8
  %23 = call i32 @FT_Stream_ReadFields(ptr noundef %20, ptr noundef %21, ptr noundef %22)
  store i32 %23, ptr %7, align 4
  br label %67

24:                                               ; preds = %3
  %25 = load ptr, ptr %4, align 8
  %26 = call i32 @FT_Stream_ReadFields(ptr noundef %25, ptr noundef @pcf_compressed_metric_header, ptr noundef %9)
  store i32 %26, ptr %7, align 4
  %27 = icmp ne i32 %26, 0
  br i1 %27, label %28, label %29

28:                                               ; preds = %24
  br label %70

29:                                               ; preds = %24
  %30 = getelementptr inbounds %struct.PCF_Compressed_MetricRec_, ptr %9, i32 0, i32 0
  %31 = load i8, ptr %30, align 1
  %32 = zext i8 %31 to i32
  %33 = sub nsw i32 %32, 128
  %34 = trunc i32 %33 to i16
  %35 = load ptr, ptr %6, align 8
  %36 = getelementptr inbounds %struct.PCF_MetricRec_, ptr %35, i32 0, i32 0
  store i16 %34, ptr %36, align 8
  %37 = getelementptr inbounds %struct.PCF_Compressed_MetricRec_, ptr %9, i32 0, i32 1
  %38 = load i8, ptr %37, align 1
  %39 = zext i8 %38 to i32
  %40 = sub nsw i32 %39, 128
  %41 = trunc i32 %40 to i16
  %42 = load ptr, ptr %6, align 8
  %43 = getelementptr inbounds %struct.PCF_MetricRec_, ptr %42, i32 0, i32 1
  store i16 %41, ptr %43, align 2
  %44 = getelementptr inbounds %struct.PCF_Compressed_MetricRec_, ptr %9, i32 0, i32 2
  %45 = load i8, ptr %44, align 1
  %46 = zext i8 %45 to i32
  %47 = sub nsw i32 %46, 128
  %48 = trunc i32 %47 to i16
  %49 = load ptr, ptr %6, align 8
  %50 = getelementptr inbounds %struct.PCF_MetricRec_, ptr %49, i32 0, i32 2
  store i16 %48, ptr %50, align 4
  %51 = getelementptr inbounds %struct.PCF_Compressed_MetricRec_, ptr %9, i32 0, i32 3
  %52 = load i8, ptr %51, align 1
  %53 = zext i8 %52 to i32
  %54 = sub nsw i32 %53, 128
  %55 = trunc i32 %54 to i16
  %56 = load ptr, ptr %6, align 8
  %57 = getelementptr inbounds %struct.PCF_MetricRec_, ptr %56, i32 0, i32 3
  store i16 %55, ptr %57, align 2
  %58 = getelementptr inbounds %struct.PCF_Compressed_MetricRec_, ptr %9, i32 0, i32 4
  %59 = load i8, ptr %58, align 1
  %60 = zext i8 %59 to i32
  %61 = sub nsw i32 %60, 128
  %62 = trunc i32 %61 to i16
  %63 = load ptr, ptr %6, align 8
  %64 = getelementptr inbounds %struct.PCF_MetricRec_, ptr %63, i32 0, i32 4
  store i16 %62, ptr %64, align 8
  %65 = load ptr, ptr %6, align 8
  %66 = getelementptr inbounds %struct.PCF_MetricRec_, ptr %65, i32 0, i32 5
  store i16 0, ptr %66, align 2
  br label %67

67:                                               ; preds = %29, %13
  br label %68

68:                                               ; preds = %67
  br label %69

69:                                               ; preds = %68
  br label %70

70:                                               ; preds = %69, %28
  %71 = load i32, ptr %7, align 4
  ret i32 %71
}