; Function Attrs: nounwind uwtable
define internal fastcc i32 @pcf_get_metric(ptr noundef %0, i64 noundef %1, ptr noundef %2) unnamed_addr #1 {
  %4 = alloca %struct.PCF_Compressed_MetricRec_, align 4
  %5 = and i64 %1, 4294967040
  %6 = icmp eq i64 %5, 0
  br i1 %6, label %7, label %11

7:                                                ; preds = %3
  %8 = and i64 %1, 4
  %.not13 = icmp eq i64 %8, 0
  %9 = select i1 %.not13, ptr @pcf_metric_header, ptr @pcf_metric_msb_header
  %10 = tail call i32 @FT_Stream_ReadFields(ptr noundef %0, ptr noundef nonnull %9, ptr noundef %2) #15
  br label %23

11:                                               ; preds = %3
  %12 = call i32 @FT_Stream_ReadFields(ptr noundef %0, ptr noundef nonnull @pcf_compressed_metric_header, ptr noundef nonnull %4) #15
  %.not = icmp eq i32 %12, 0
  br i1 %.not, label %13, label %23

13:                                               ; preds = %11
  %14 = load <4 x i8>, ptr %4, align 4
  %15 = zext <4 x i8> %14 to <4 x i16>
  %16 = add nsw <4 x i16> %15, <i16 -128, i16 -128, i16 -128, i16 -128>
  store <4 x i16> %16, ptr %2, align 8
  %17 = getelementptr inbounds i8, ptr %4, i64 4
  %18 = load i8, ptr %17, align 4
  %19 = zext i8 %18 to i16
  %20 = add nsw i16 %19, -128
  %21 = getelementptr inbounds i8, ptr %2, i64 8
  store i16 %20, ptr %21, align 8
  %22 = getelementptr inbounds i8, ptr %2, i64 10
  store i16 0, ptr %22, align 2
  br label %23

23:                                               ; preds = %7, %13, %11
  %.0 = phi i32 [ %10, %7 ], [ %12, %11 ], [ 0, %13 ]
  ret i32 %.0
}